; ModuleID = 'source-C-CXX/61/3129.cpp'
source_filename = "source-C-CXX/61/3129.cpp"
target datalayout = "e-m:e-p270:32:32-p271:32:32-p272:64:64-i64:64-f80:128-n8:16:32:64-S128"
target triple = "x86_64-pc-linux-gnu"

%"class.std::ios_base::Init" = type { i8 }
%"class.std::basic_istream" = type { i32 (...)**, i64, %"class.std::basic_ios" }
%"class.std::basic_ios" = type { %"class.std::ios_base", %"class.std::basic_ostream"*, i8, i8, %"class.std::basic_streambuf"*, %"class.std::ctype"*, %"class.std::num_put"*, %"class.std::num_get"* }
%"class.std::ios_base" = type { i32 (...)**, i64, i64, i32, i32, i32, %"struct.std::ios_base::_Callback_list"*, %"struct.std::ios_base::_Words", [8 x %"struct.std::ios_base::_Words"], i32, %"struct.std::ios_base::_Words"*, %"class.std::locale" }
%"struct.std::ios_base::_Callback_list" = type { %"struct.std::ios_base::_Callback_list"*, void (i32, %"class.std::ios_base"*, i32)*, i32, i32 }
%"struct.std::ios_base::_Words" = type { i8*, i64 }
%"class.std::locale" = type { %"class.std::locale::_Impl"* }
%"class.std::locale::_Impl" = type { i32, %"class.std::locale::facet"**, i64, %"class.std::locale::facet"**, i8** }
%"class.std::locale::facet" = type <{ i32 (...)**, i32, [4 x i8] }>
%"class.std::basic_ostream" = type { i32 (...)**, %"class.std::basic_ios" }
%"class.std::basic_streambuf" = type { i32 (...)**, i8*, i8*, i8*, i8*, i8*, i8*, %"class.std::locale" }
%"class.std::ctype" = type <{ %"class.std::locale::facet.base", [4 x i8], %struct.__locale_struct*, i8, [7 x i8], i32*, i32*, i16*, i8, [256 x i8], [256 x i8], i8, [6 x i8] }>
%"class.std::locale::facet.base" = type <{ i32 (...)**, i32 }>
%struct.__locale_struct = type { [13 x %struct.__locale_data*], i16*, i32*, i32*, [13 x i8*] }
%struct.__locale_data = type opaque
%"class.std::num_put" = type { %"class.std::locale::facet.base", [4 x i8] }
%"class.std::num_get" = type { %"class.std::locale::facet.base", [4 x i8] }

@_ZStL8__ioinit = internal global %"class.std::ios_base::Init" zeroinitializer, align 1
@__dso_handle = external hidden global i8
@_ZSt3cin = external global %"class.std::basic_istream", align 8
@_ZSt4cout = external global %"class.std::basic_ostream", align 8
@llvm.global_ctors = appending global [1 x { i32, void ()*, i8* }] [{ i32, void ()*, i8* } { i32 65535, void ()* @_GLOBAL__sub_I_3129.cpp, i8* null }]

declare void @_ZNSt8ios_base4InitC1Ev(%"class.std::ios_base::Init"* nonnull align 1 dereferenceable(1)) unnamed_addr #0

; Function Attrs: nounwind
declare void @_ZNSt8ios_base4InitD1Ev(%"class.std::ios_base::Init"* nonnull align 1 dereferenceable(1)) unnamed_addr #1

; Function Attrs: nofree nounwind
declare i32 @__cxa_atexit(void (i8*)*, i8*, i8*) local_unnamed_addr #2

; Function Attrs: mustprogress norecurse sspstrong uwtable
define dso_local i32 @main() local_unnamed_addr #3 {
  %1 = alloca [10000 x i8], align 16
  %2 = getelementptr inbounds [10000 x i8], [10000 x i8]* %1, i64 0, i64 0
  call void @llvm.lifetime.start.p0i8(i64 10000, i8* nonnull %2) #8
  %3 = load i8*, i8** bitcast (%"class.std::basic_istream"* @_ZSt3cin to i8**), align 8, !tbaa !5
  %4 = getelementptr i8, i8* %3, i64 -24
  %5 = bitcast i8* %4 to i64*
  %6 = load i64, i64* %5, align 8
  %7 = add nsw i64 %6, 240
  %8 = getelementptr inbounds i8, i8* bitcast (%"class.std::basic_istream"* @_ZSt3cin to i8*), i64 %7
  %9 = bitcast i8* %8 to %"class.std::ctype"**
  %10 = load %"class.std::ctype"*, %"class.std::ctype"** %9, align 8, !tbaa !8
  %11 = icmp eq %"class.std::ctype"* %10, null
  br i1 %11, label %12, label %13

12:                                               ; preds = %0
  tail call void @_ZSt16__throw_bad_castv() #9
  unreachable

13:                                               ; preds = %0
  %14 = getelementptr inbounds %"class.std::ctype", %"class.std::ctype"* %10, i64 0, i32 8
  %15 = load i8, i8* %14, align 8, !tbaa !13
  %16 = icmp eq i8 %15, 0
  br i1 %16, label %20, label %17

17:                                               ; preds = %13
  %18 = getelementptr inbounds %"class.std::ctype", %"class.std::ctype"* %10, i64 0, i32 9, i64 10
  %19 = load i8, i8* %18, align 1, !tbaa !15
  br label %26

20:                                               ; preds = %13
  tail call void @_ZNKSt5ctypeIcE13_M_widen_initEv(%"class.std::ctype"* nonnull align 8 dereferenceable(570) %10)
  %21 = bitcast %"class.std::ctype"* %10 to i8 (%"class.std::ctype"*, i8)***
  %22 = load i8 (%"class.std::ctype"*, i8)**, i8 (%"class.std::ctype"*, i8)*** %21, align 8, !tbaa !5
  %23 = getelementptr inbounds i8 (%"class.std::ctype"*, i8)*, i8 (%"class.std::ctype"*, i8)** %22, i64 6
  %24 = load i8 (%"class.std::ctype"*, i8)*, i8 (%"class.std::ctype"*, i8)** %23, align 8
  %25 = tail call signext i8 %24(%"class.std::ctype"* nonnull align 8 dereferenceable(570) %10, i8 signext 10)
  br label %26

26:                                               ; preds = %17, %20
  %27 = phi i8 [ %19, %17 ], [ %25, %20 ]
  %28 = call nonnull align 8 dereferenceable(16) %"class.std::basic_istream"* @_ZNSi7getlineEPclc(%"class.std::basic_istream"* nonnull align 8 dereferenceable(16) @_ZSt3cin, i8* nonnull %2, i64 10000, i8 signext %27)
  %29 = call i64 @strlen(i8* noundef nonnull %2) #10
  %30 = trunc i64 %29 to i32
  %31 = icmp sgt i32 %30, 0
  br i1 %31, label %32, label %163

32:                                               ; preds = %26, %156
  %33 = phi i32 [ %160, %156 ], [ 0, %26 ]
  %34 = phi i32 [ %161, %156 ], [ 0, %26 ]
  %35 = phi i32 [ %158, %156 ], [ %30, %26 ]
  %36 = phi i8* [ %157, %156 ], [ %2, %26 ]
  %37 = load i8, i8* %36, align 1, !tbaa !15
  %38 = icmp eq i8 %37, 32
  %39 = icmp eq i32 %33, 0
  %40 = and i1 %39, %38
  br i1 %40, label %41, label %43

41:                                               ; preds = %32
  %42 = getelementptr inbounds i8, i8* %36, i64 1
  br label %156

43:                                               ; preds = %32
  %44 = icmp eq i32 %33, 1
  %45 = and i1 %44, %38
  br i1 %45, label %46, label %154

46:                                               ; preds = %43
  %47 = add nsw i32 %35, -1
  %48 = icmp slt i32 %34, %47
  br i1 %48, label %51, label %49

49:                                               ; preds = %46
  %50 = sext i32 %47 to i64
  br label %150

51:                                               ; preds = %46
  %52 = sext i32 %34 to i64
  %53 = sext i32 %47 to i64
  %54 = sub nsw i64 %53, %52
  %55 = icmp ult i64 %54, 8
  br i1 %55, label %141, label %56

56:                                               ; preds = %51
  %57 = icmp ult i64 %54, 32
  br i1 %57, label %120, label %58

58:                                               ; preds = %56
  %59 = and i64 %54, -32
  %60 = add nsw i64 %59, -32
  %61 = lshr exact i64 %60, 5
  %62 = add nuw nsw i64 %61, 1
  %63 = and i64 %62, 1
  %64 = icmp eq i64 %60, 0
  br i1 %64, label %98, label %65

65:                                               ; preds = %58
  %66 = and i64 %62, 1152921504606846974
  br label %67

67:                                               ; preds = %67, %65
  %68 = phi i64 [ 0, %65 ], [ %95, %67 ]
  %69 = phi i64 [ %66, %65 ], [ %96, %67 ]
  %70 = add i64 %68, %52
  %71 = add nsw i64 %70, 1
  %72 = getelementptr inbounds [10000 x i8], [10000 x i8]* %1, i64 0, i64 %71
  %73 = bitcast i8* %72 to <16 x i8>*
  %74 = load <16 x i8>, <16 x i8>* %73, align 1, !tbaa !15
  %75 = getelementptr inbounds i8, i8* %72, i64 16
  %76 = bitcast i8* %75 to <16 x i8>*
  %77 = load <16 x i8>, <16 x i8>* %76, align 1, !tbaa !15
  %78 = getelementptr inbounds [10000 x i8], [10000 x i8]* %1, i64 0, i64 %70
  %79 = bitcast i8* %78 to <16 x i8>*
  store <16 x i8> %74, <16 x i8>* %79, align 1, !tbaa !15
  %80 = getelementptr inbounds i8, i8* %78, i64 16
  %81 = bitcast i8* %80 to <16 x i8>*
  store <16 x i8> %77, <16 x i8>* %81, align 1, !tbaa !15
  %82 = or i64 %68, 32
  %83 = add i64 %82, %52
  %84 = add nsw i64 %83, 1
  %85 = getelementptr inbounds [10000 x i8], [10000 x i8]* %1, i64 0, i64 %84
  %86 = bitcast i8* %85 to <16 x i8>*
  %87 = load <16 x i8>, <16 x i8>* %86, align 1, !tbaa !15
  %88 = getelementptr inbounds i8, i8* %85, i64 16
  %89 = bitcast i8* %88 to <16 x i8>*
  %90 = load <16 x i8>, <16 x i8>* %89, align 1, !tbaa !15
  %91 = getelementptr inbounds [10000 x i8], [10000 x i8]* %1, i64 0, i64 %83
  %92 = bitcast i8* %91 to <16 x i8>*
  store <16 x i8> %87, <16 x i8>* %92, align 1, !tbaa !15
  %93 = getelementptr inbounds i8, i8* %91, i64 16
  %94 = bitcast i8* %93 to <16 x i8>*
  store <16 x i8> %90, <16 x i8>* %94, align 1, !tbaa !15
  %95 = add nuw i64 %68, 64
  %96 = add i64 %69, -2
  %97 = icmp eq i64 %96, 0
  br i1 %97, label %98, label %67, !llvm.loop !16

98:                                               ; preds = %67, %58
  %99 = phi i64 [ 0, %58 ], [ %95, %67 ]
  %100 = icmp eq i64 %63, 0
  br i1 %100, label %114, label %101

101:                                              ; preds = %98
  %102 = add i64 %99, %52
  %103 = add nsw i64 %102, 1
  %104 = getelementptr inbounds [10000 x i8], [10000 x i8]* %1, i64 0, i64 %103
  %105 = bitcast i8* %104 to <16 x i8>*
  %106 = load <16 x i8>, <16 x i8>* %105, align 1, !tbaa !15
  %107 = getelementptr inbounds i8, i8* %104, i64 16
  %108 = bitcast i8* %107 to <16 x i8>*
  %109 = load <16 x i8>, <16 x i8>* %108, align 1, !tbaa !15
  %110 = getelementptr inbounds [10000 x i8], [10000 x i8]* %1, i64 0, i64 %102
  %111 = bitcast i8* %110 to <16 x i8>*
  store <16 x i8> %106, <16 x i8>* %111, align 1, !tbaa !15
  %112 = getelementptr inbounds i8, i8* %110, i64 16
  %113 = bitcast i8* %112 to <16 x i8>*
  store <16 x i8> %109, <16 x i8>* %113, align 1, !tbaa !15
  br label %114

114:                                              ; preds = %98, %101
  %115 = icmp eq i64 %54, %59
  br i1 %115, label %150, label %116

116:                                              ; preds = %114
  %117 = add nsw i64 %59, %52
  %118 = and i64 %54, 24
  %119 = icmp eq i64 %118, 0
  br i1 %119, label %141, label %120

120:                                              ; preds = %56, %116
  %121 = phi i64 [ %59, %116 ], [ 0, %56 ]
  %122 = add i32 %35, -1
  %123 = sext i32 %122 to i64
  %124 = sext i32 %34 to i64
  %125 = sub nsw i64 %123, %124
  %126 = and i64 %125, -8
  %127 = add nsw i64 %126, %52
  br label %128

128:                                              ; preds = %128, %120
  %129 = phi i64 [ %121, %120 ], [ %137, %128 ]
  %130 = add i64 %129, %52
  %131 = add nsw i64 %130, 1
  %132 = getelementptr inbounds [10000 x i8], [10000 x i8]* %1, i64 0, i64 %131
  %133 = bitcast i8* %132 to <8 x i8>*
  %134 = load <8 x i8>, <8 x i8>* %133, align 1, !tbaa !15
  %135 = getelementptr inbounds [10000 x i8], [10000 x i8]* %1, i64 0, i64 %130
  %136 = bitcast i8* %135 to <8 x i8>*
  store <8 x i8> %134, <8 x i8>* %136, align 1, !tbaa !15
  %137 = add nuw i64 %129, 8
  %138 = icmp eq i64 %137, %126
  br i1 %138, label %139, label %128, !llvm.loop !19

139:                                              ; preds = %128
  %140 = icmp eq i64 %125, %126
  br i1 %140, label %150, label %141

141:                                              ; preds = %51, %116, %139
  %142 = phi i64 [ %52, %51 ], [ %117, %116 ], [ %127, %139 ]
  br label %143

143:                                              ; preds = %141, %143
  %144 = phi i64 [ %145, %143 ], [ %142, %141 ]
  %145 = add nsw i64 %144, 1
  %146 = getelementptr inbounds [10000 x i8], [10000 x i8]* %1, i64 0, i64 %145
  %147 = load i8, i8* %146, align 1, !tbaa !15
  %148 = getelementptr inbounds [10000 x i8], [10000 x i8]* %1, i64 0, i64 %144
  store i8 %147, i8* %148, align 1, !tbaa !15
  %149 = icmp eq i64 %145, %53
  br i1 %149, label %150, label %143, !llvm.loop !20

150:                                              ; preds = %143, %114, %139, %49
  %151 = phi i64 [ %50, %49 ], [ %53, %139 ], [ %53, %114 ], [ %53, %143 ]
  %152 = getelementptr inbounds [10000 x i8], [10000 x i8]* %1, i64 0, i64 %151
  store i8 0, i8* %152, align 1, !tbaa !15
  %153 = add nsw i32 %34, -1
  br label %156

154:                                              ; preds = %43
  %155 = getelementptr inbounds i8, i8* %36, i64 1
  br label %156

156:                                              ; preds = %41, %154, %150
  %157 = phi i8* [ %42, %41 ], [ %36, %150 ], [ %155, %154 ]
  %158 = phi i32 [ %35, %41 ], [ %47, %150 ], [ %35, %154 ]
  %159 = phi i32 [ %34, %41 ], [ %153, %150 ], [ %34, %154 ]
  %160 = phi i32 [ 1, %41 ], [ 1, %150 ], [ 0, %154 ]
  %161 = add nsw i32 %159, 1
  %162 = icmp slt i32 %161, %158
  br i1 %162, label %32, label %163, !llvm.loop !22

163:                                              ; preds = %156, %26
  %164 = call i64 @strlen(i8* noundef nonnull dereferenceable(1) %2) #8
  %165 = call nonnull align 8 dereferenceable(8) %"class.std::basic_ostream"* @_ZSt16__ostream_insertIcSt11char_traitsIcEERSt13basic_ostreamIT_T0_ES6_PKS3_l(%"class.std::basic_ostream"* nonnull align 8 dereferenceable(8) @_ZSt4cout, i8* nonnull %2, i64 %164)
  call void @llvm.lifetime.end.p0i8(i64 10000, i8* nonnull %2) #8
  ret i32 0
}

; Function Attrs: argmemonly mustprogress nofree nosync nounwind willreturn
declare void @llvm.lifetime.start.p0i8(i64 immarg, i8* nocapture) #4

; Function Attrs: argmemonly mustprogress nofree nounwind readonly willreturn
declare i64 @strlen(i8* nocapture) local_unnamed_addr #5

; Function Attrs: argmemonly mustprogress nofree nosync nounwind willreturn
declare void @llvm.lifetime.end.p0i8(i64 immarg, i8* nocapture) #4

declare nonnull align 8 dereferenceable(16) %"class.std::basic_istream"* @_ZNSi7getlineEPclc(%"class.std::basic_istream"* nonnull align 8 dereferenceable(16), i8*, i64, i8 signext) local_unnamed_addr #0

; Function Attrs: noreturn
declare void @_ZSt16__throw_bad_castv() local_unnamed_addr #6

declare void @_ZNKSt5ctypeIcE13_M_widen_initEv(%"class.std::ctype"* nonnull align 8 dereferenceable(570)) local_unnamed_addr #0

declare nonnull align 8 dereferenceable(8) %"class.std::basic_ostream"* @_ZSt16__ostream_insertIcSt11char_traitsIcEERSt13basic_ostreamIT_T0_ES6_PKS3_l(%"class.std::basic_ostream"* nonnull align 8 dereferenceable(8), i8*, i64) local_unnamed_addr #0

; Function Attrs: sspstrong uwtable
define internal void @_GLOBAL__sub_I_3129.cpp() #7 section ".text.startup" {
  tail call void @_ZNSt8ios_base4InitC1Ev(%"class.std::ios_base::Init"* nonnull align 1 dereferenceable(1) @_ZStL8__ioinit)
  %1 = tail call i32 @__cxa_atexit(void (i8*)* bitcast (void (%"class.std::ios_base::Init"*)* @_ZNSt8ios_base4InitD1Ev to void (i8*)*), i8* getelementptr inbounds (%"class.std::ios_base::Init", %"class.std::ios_base::Init"* @_ZStL8__ioinit, i64 0, i32 0), i8* nonnull @__dso_handle) #8
  ret void
}


!llvm.module.flags = !{!0, !1, !2, !3}
!llvm.ident = !{!4}

!0 = !{i32 1, !"wchar_size", i32 4}
!1 = !{i32 7, !"PIC Level", i32 2}
!2 = !{i32 7, !"PIE Level", i32 2}
!3 = !{i32 7, !"uwtable", i32 1}
!4 = !{!"clang version 13.0.0"}
!5 = !{!6, !6, i64 0}
!6 = !{!"vtable pointer", !7, i64 0}
!7 = !{!"Simple C++ TBAA"}
!8 = !{!9, !10, i64 240}
!9 = !{!"_ZTSSt9basic_iosIcSt11char_traitsIcEE", !10, i64 216, !11, i64 224, !12, i64 225, !10, i64 232, !10, i64 240, !10, i64 248, !10, i64 256}
!10 = !{!"any pointer", !11, i64 0}
!11 = !{!"omnipotent char", !7, i64 0}
!12 = !{!"bool", !11, i64 0}
!13 = !{!14, !11, i64 56}
!14 = !{!"_ZTSSt5ctypeIcE", !10, i64 16, !12, i64 24, !10, i64 32, !10, i64 40, !10, i64 48, !11, i64 56, !11, i64 57, !11, i64 313, !11, i64 569}
!15 = !{!11, !11, i64 0}
!16 = distinct !{!16, !17, !18}
!17 = !{!"llvm.loop.mustprogress"}
!18 = !{!"llvm.loop.isvectorized", i32 1}
!19 = distinct !{!19, !17, !18}
!20 = distinct !{!20, !17, !21, !18}
!21 = !{!"llvm.loop.unroll.runtime.disable"}
!22 = distinct !{!22, !17}
